target datalayout = "e-m:e-p270:32:32-p271:32:32-p272:64:64-i64:64-i128:128-f80:128-n8:16:32:64-S128"
target triple = "x86_64-pc-linux-gnu"

@hf_gryphon_reserved = internal global i32 0, align 4
@hf_gryphon_sched_rep_id = internal global i32 0, align 4
@hf_gryphon_sched_rep_message_index = internal global i32 0, align 4
@.str.815 = private unnamed_addr constant [9 x i8] c"Critical\00", align 1
@.str.816 = private unnamed_addr constant [7 x i8] c"Normal\00", align 1
@.str.1062 = private unnamed_addr constant [19 x i8] c"%s schedule ID: %u\00", align 1

; Function Attrs: null_pointer_is_valid sspstrong uwtable
define internal i32 @cmd_sched_rep(ptr noundef %0, i32 noundef %1, ptr noundef %2) #0 {
  %4 = alloca ptr, align 8
  %5 = alloca i32, align 4
  %6 = alloca ptr, align 8
  %7 = alloca i32, align 4
  %8 = alloca ptr, align 8
  store ptr %0, ptr %4, align 8
  store i32 %1, ptr %5, align 4
  store ptr %2, ptr %6, align 8
  call void @llvm.lifetime.start.p0(i64 4, ptr %7) #7
  call void @llvm.lifetime.start.p0(i64 8, ptr %8) #7
  %9 = load ptr, ptr %4, align 8
  %10 = load i32, ptr %5, align 4
  %11 = call i32 @tvb_get_ntohl(ptr noundef %9, i32 noundef %10)
  store i32 %11, ptr %7, align 4
  %12 = load i32, ptr %7, align 4
  %13 = and i32 %12, -2147483648
  %14 = icmp ne i32 %13, 0
  br i1 %14, label %15, label %16

15:                                               ; preds = %3
  store ptr @.str.815, ptr %8, align 8
  br label %17

16:                                               ; preds = %3
  store ptr @.str.816, ptr %8, align 8
  br label %17

17:                                               ; preds = %16, %15
  %18 = load ptr, ptr %6, align 8
  %19 = load i32, ptr @hf_gryphon_sched_rep_id, align 4
  %20 = load ptr, ptr %4, align 8
  %21 = load i32, ptr %5, align 4
  %22 = load i32, ptr %7, align 4
  %23 = load ptr, ptr %8, align 8
  %24 = load i32, ptr %7, align 4
  %25 = call ptr (ptr, i32, ptr, i32, i32, i32, ptr, ...) @proto_tree_add_uint_format_value(ptr noundef %18, i32 noundef %19, ptr noundef %20, i32 noundef %21, i32 noundef 4, i32 noundef %22, ptr noundef @.str.1062, ptr noundef %23, i32 noundef %24)
  %26 = load i32, ptr %5, align 4
  %27 = add i32 %26, 4
  store i32 %27, ptr %5, align 4
  %28 = load ptr, ptr %6, align 8
  %29 = load i32, ptr @hf_gryphon_sched_rep_message_index, align 4
  %30 = load ptr, ptr %4, align 8
  %31 = load i32, ptr %5, align 4
  %32 = call ptr @proto_tree_add_item(ptr noundef %28, i32 noundef %29, ptr noundef %30, i32 noundef %31, i32 noundef 1, i32 noundef 0)
  %33 = load ptr, ptr %6, align 8
  %34 = load i32, ptr @hf_gryphon_reserved, align 4
  %35 = load ptr, ptr %4, align 8
  %36 = load i32, ptr %5, align 4
  %37 = add i32 %36, 1
  %38 = call ptr @proto_tree_add_item(ptr noundef %33, i32 noundef %34, ptr noundef %35, i32 noundef %37, i32 noundef 3, i32 noundef 0)
  %39 = load i32, ptr %5, align 4
  %40 = add i32 %39, 4
  store i32 %40, ptr %5, align 4
  %41 = load ptr, ptr %4, align 8
  %42 = load i32, ptr %5, align 4
  %43 = load ptr, ptr %6, align 8
  %44 = call i32 @decode_data(ptr noundef %41, i32 noundef %42, ptr noundef %43)
  store i32 %44, ptr %5, align 4
  %45 = load i32, ptr %5, align 4
  call void @llvm.lifetime.end.p0(i64 8, ptr %8) #7
  call void @llvm.lifetime.end.p0(i64 4, ptr %7) #7
  ret i32 %45
}