; Function Attrs: null_pointer_is_valid sspstrong uwtable
define internal fastcc i32 @cmd_sched_rep(ptr noundef %0, ptr noundef %1) unnamed_addr #0 {
  %3 = tail call i32 @tvb_get_ntohl(ptr noundef %0, i32 noundef 12)
  %.not = icmp sgt i32 %3, -1
  %.str.816..str.815 = select i1 %.not, ptr @.str.816, ptr @.str.815
  %4 = load i32, ptr @hf_gryphon_sched_rep_id, align 4
  %5 = tail call ptr (ptr, i32, ptr, i32, i32, i32, ptr, ...) @proto_tree_add_uint_format_value(ptr noundef %1, i32 noundef %4, ptr noundef %0, i32 noundef 12, i32 noundef 4, i32 noundef %3, ptr noundef nonnull @.str.1062, ptr noundef nonnull %.str.816..str.815, i32 noundef %3)
  %6 = load i32, ptr @hf_gryphon_sched_rep_message_index, align 4
  %7 = tail call ptr @proto_tree_add_item(ptr noundef %1, i32 noundef %6, ptr noundef %0, i32 noundef 16, i32 noundef 1, i32 noundef 0)
  %8 = load i32, ptr @hf_gryphon_reserved, align 4
  %9 = tail call ptr @proto_tree_add_item(ptr noundef %1, i32 noundef %8, ptr noundef %0, i32 noundef 17, i32 noundef 3, i32 noundef 0)
  %10 = tail call fastcc i32 @decode_data(ptr noundef %0, i32 noundef 20, ptr noundef %1)
  ret i32 %10
}